target datalayout = "e-m:e-p270:32:32-p271:32:32-p272:64:64-i64:64-i128:128-f80:128-n8:16:32:64-S128"
target triple = "x86_64-pc-linux-gnu"

%"class.pbrt::Point2.1" = type { %"class.pbrt::Tuple2.2" }
%"class.pbrt::Tuple2.2" = type { i32, i32 }
%"class.pbrt::MIPMap" = type <{ %"class.pstd::vector", ptr, i32, %"struct.pbrt::MIPMapFilterOptions", [4 x i8] }>
%"class.pstd::vector" = type { %"class.pstd::pmr::polymorphic_allocator", ptr, i64, i64 }
%"class.pstd::pmr::polymorphic_allocator" = type { ptr }
%"struct.pbrt::MIPMapFilterOptions" = type { i32, float }
%"struct.pbrt::WrapMode2D" = type { %"class.pstd::array" }
%"class.pstd::array" = type { [2 x i32] }
%"class.pstd::pmr::polymorphic_allocator.11" = type { ptr }
%"class.pbrt::RGB" = type { float, float, float }
%"class.pbrt::Image" = type { i32, %"class.pbrt::Point2.1", %"class.pstd::vector.4", %"class.pbrt::ColorEncoding", %"class.pstd::vector.6", %"class.pstd::vector.8", %"class.pstd::vector.10" }
%"class.pstd::vector.4" = type { %"class.pstd::pmr::polymorphic_allocator.5", ptr, i64, i64 }
%"class.pstd::pmr::polymorphic_allocator.5" = type { ptr }
%"class.pbrt::ColorEncoding" = type { %"class.pbrt::TaggedPointer" }
%"class.pbrt::TaggedPointer" = type { i64 }
%"class.pstd::vector.6" = type { %"class.pstd::pmr::polymorphic_allocator.7", ptr, i64, i64 }
%"class.pstd::pmr::polymorphic_allocator.7" = type { ptr }
%"class.pstd::vector.8" = type { %"class.pstd::pmr::polymorphic_allocator.9", ptr, i64, i64 }
%"class.pstd::pmr::polymorphic_allocator.9" = type { ptr }
%"class.pstd::vector.10" = type { %"class.pstd::pmr::polymorphic_allocator.11", ptr, i64, i64 }
%"class.std::initializer_list.43" = type { ptr, i64 }

@.str.6 = private unnamed_addr constant [118 x i8] c"generated/home/dtcxzyw/WorkSpace/Projects/compilers/llvm-opt-benchmark/bench/pbrt-v4/pbrt-v4/src/pbrt/util/mipmap.cpp\00", align 1
@.str.11 = private unnamed_addr constant [45 x i8] c"Check failed: %s == %s with %s = %s, %s = %s\00", align 1
@.str.12 = private unnamed_addr constant [2 x i8] c"1\00", align 1
@.str.13 = private unnamed_addr constant [27 x i8] c"pyramid[level].NChannels()\00", align 1

; Function Attrs: mustprogress nounwind uwtable
define linkonce_odr dso_local noundef i64 @_ZNKSt16initializer_listIN4pbrt8WrapModeEE4sizeEv(ptr noundef nonnull align 8 dereferenceable(16) %0) #6 comdat align 2 {
  %2 = alloca ptr, align 8
  store ptr %0, ptr %2, align 8, !tbaa !200
  %3 = load ptr, ptr %2, align 8
  %4 = getelementptr inbounds nuw %"class.std::initializer_list.43", ptr %3, i32 0, i32 1
  %5 = load i64, ptr %4, align 8, !tbaa !95
  ret i64 %5
}

; Function Attrs: mustprogress nounwind uwtable
define linkonce_odr dso_local noundef ptr @_ZNKSt16initializer_listIN4pbrt8WrapModeEE3endEv(ptr noundef nonnull align 8 dereferenceable(16) %0) #6 comdat align 2 {
  %2 = alloca ptr, align 8
  store ptr %0, ptr %2, align 8, !tbaa !200
  %3 = load ptr, ptr %2, align 8
  %4 = call noundef ptr @_ZNKSt16initializer_listIN4pbrt8WrapModeEE5beginEv(ptr noundef nonnull align 8 dereferenceable(16) %3) #19
  %5 = call noundef i64 @_ZNKSt16initializer_listIN4pbrt8WrapModeEE4sizeEv(ptr noundef nonnull align 8 dereferenceable(16) %3) #19
  %6 = getelementptr inbounds nuw i32, ptr %4, i64 %5
  ret ptr %6
}

; Function Attrs: mustprogress nounwind uwtable
define linkonce_odr dso_local noundef ptr @_ZNKSt16initializer_listIN4pbrt8WrapModeEE5beginEv(ptr noundef nonnull align 8 dereferenceable(16) %0) #6 comdat align 2 {
  %2 = alloca ptr, align 8
  store ptr %0, ptr %2, align 8, !tbaa !200
  %3 = load ptr, ptr %2, align 8
  %4 = getelementptr inbounds nuw %"class.std::initializer_list.43", ptr %3, i32 0, i32 0
  %5 = load ptr, ptr %4, align 8, !tbaa !93
  ret ptr %5
}

; Function Attrs: mustprogress nounwind uwtable
define linkonce_odr dso_local void @_ZN4pstd5arrayIN4pbrt8WrapModeELi2EEC2ESt16initializer_listIS2_E(ptr noundef nonnull align 4 dereferenceable(8) %0, ptr %1, i64 %2) unnamed_addr #6 comdat align 2 {
  %4 = alloca %"class.std::initializer_list.43", align 8
  %5 = alloca ptr, align 8
  %6 = alloca i64, align 8
  %7 = alloca ptr, align 8
  %8 = alloca ptr, align 8
  %9 = alloca ptr, align 8
  %10 = alloca ptr, align 8
  %11 = getelementptr inbounds nuw { ptr, i64 }, ptr %4, i32 0, i32 0
  store ptr %1, ptr %11, align 8
  %12 = getelementptr inbounds nuw { ptr, i64 }, ptr %4, i32 0, i32 1
  store i64 %2, ptr %12, align 8
  store ptr %0, ptr %5, align 8, !tbaa !198
  %13 = load ptr, ptr %5, align 8
  %14 = getelementptr inbounds nuw %"class.pstd::array", ptr %13, i32 0, i32 0
  %15 = getelementptr inbounds i32, ptr %14, i64 2
  br label %16

16:                                               ; preds = %16, %3
  %17 = phi ptr [ %14, %3 ], [ %18, %16 ]
  store i32 0, ptr %17, align 4, !tbaa !68
  %18 = getelementptr inbounds i32, ptr %17, i64 1
  %19 = icmp eq ptr %18, %15
  br i1 %19, label %20, label %16

20:                                               ; preds = %16
  call void @llvm.lifetime.start.p0(i64 8, ptr %6) #19
  store i64 0, ptr %6, align 8, !tbaa !96
  call void @llvm.lifetime.start.p0(i64 8, ptr %7) #19
  store ptr %4, ptr %7, align 8, !tbaa !200
  call void @llvm.lifetime.start.p0(i64 8, ptr %8) #19
  %21 = load ptr, ptr %7, align 8, !tbaa !200
  %22 = call noundef ptr @_ZNKSt16initializer_listIN4pbrt8WrapModeEE5beginEv(ptr noundef nonnull align 8 dereferenceable(16) %21) #19
  store ptr %22, ptr %8, align 8, !tbaa !56
  call void @llvm.lifetime.start.p0(i64 8, ptr %9) #19
  %23 = load ptr, ptr %7, align 8, !tbaa !200
  %24 = call noundef ptr @_ZNKSt16initializer_listIN4pbrt8WrapModeEE3endEv(ptr noundef nonnull align 8 dereferenceable(16) %23) #19
  store ptr %24, ptr %9, align 8, !tbaa !56
  br label %25

25:                                               ; preds = %38, %20
  %26 = load ptr, ptr %8, align 8, !tbaa !56
  %27 = load ptr, ptr %9, align 8, !tbaa !56
  %28 = icmp ne ptr %26, %27
  br i1 %28, label %30, label %29

29:                                               ; preds = %25
  call void @llvm.lifetime.end.p0(i64 8, ptr %9) #19
  call void @llvm.lifetime.end.p0(i64 8, ptr %8) #19
  call void @llvm.lifetime.end.p0(i64 8, ptr %7) #19
  br label %41

30:                                               ; preds = %25
  call void @llvm.lifetime.start.p0(i64 8, ptr %10) #19
  %31 = load ptr, ptr %8, align 8, !tbaa !56
  store ptr %31, ptr %10, align 8, !tbaa !56
  %32 = load ptr, ptr %10, align 8, !tbaa !56
  %33 = load i32, ptr %32, align 4, !tbaa !68
  %34 = getelementptr inbounds nuw %"class.pstd::array", ptr %13, i32 0, i32 0
  %35 = load i64, ptr %6, align 8, !tbaa !96
  %36 = add i64 %35, 1
  store i64 %36, ptr %6, align 8, !tbaa !96
  %37 = getelementptr inbounds nuw [2 x i32], ptr %34, i64 0, i64 %35
  store i32 %33, ptr %37, align 4, !tbaa !68
  call void @llvm.lifetime.end.p0(i64 8, ptr %10) #19
  br label %38

38:                                               ; preds = %30
  %39 = load ptr, ptr %8, align 8, !tbaa !56
  %40 = getelementptr inbounds nuw i32, ptr %39, i32 1
  store ptr %40, ptr %8, align 8, !tbaa !56
  br label %25

41:                                               ; preds = %29
  call void @llvm.lifetime.end.p0(i64 8, ptr %6) #19
  ret void
}

; Function Attrs: mustprogress nounwind uwtable
define linkonce_odr dso_local noundef i64 @_ZNK4pstd6vectorINSt7__cxx1112basic_stringIcSt11char_traitsIcESaIcEEENS_3pmr21polymorphic_allocatorIS6_EEE4sizeEv(ptr noundef nonnull align 8 dereferenceable(32) %0) #6 comdat align 2 {
  %2 = alloca ptr, align 8
  store ptr %0, ptr %2, align 8, !tbaa !160
  %3 = load ptr, ptr %2, align 8
  %4 = getelementptr inbounds nuw %"class.pstd::vector.4", ptr %3, i32 0, i32 3
  %5 = load i64, ptr %4, align 8, !tbaa !164
  ret i64 %5
}

; Function Attrs: mustprogress nounwind uwtable
define linkonce_odr dso_local void @_ZN4pbrt3RGBC2Efff(ptr noundef nonnull align 4 dereferenceable(12) %0, float noundef %1, float noundef %2, float noundef %3) unnamed_addr #6 comdat align 2 {
  %5 = alloca ptr, align 8
  %6 = alloca float, align 4
  %7 = alloca float, align 4
  %8 = alloca float, align 4
  store ptr %0, ptr %5, align 8, !tbaa !118
  store float %1, ptr %6, align 4, !tbaa !9
  store float %2, ptr %7, align 4, !tbaa !9
  store float %3, ptr %8, align 4, !tbaa !9
  %9 = load ptr, ptr %5, align 8
  %10 = getelementptr inbounds nuw %"class.pbrt::RGB", ptr %9, i32 0, i32 0
  %11 = load float, ptr %6, align 4, !tbaa !9
  store float %11, ptr %10, align 4, !tbaa !120
  %12 = getelementptr inbounds nuw %"class.pbrt::RGB", ptr %9, i32 0, i32 1
  %13 = load float, ptr %7, align 4, !tbaa !9
  store float %13, ptr %12, align 4, !tbaa !122
  %14 = getelementptr inbounds nuw %"class.pbrt::RGB", ptr %9, i32 0, i32 2
  %15 = load float, ptr %8, align 4, !tbaa !9
  store float %15, ptr %14, align 4, !tbaa !123
  ret void
}

; Function Attrs: mustprogress uwtable
define linkonce_odr dso_local void @_ZN4pbrt10WrapMode2DC2ENS_8WrapModeE(ptr noundef nonnull align 4 dereferenceable(8) %0, i32 noundef %1) unnamed_addr #1 comdat align 2 {
  %3 = alloca ptr, align 8
  %4 = alloca i32, align 4
  %5 = alloca %"class.std::initializer_list.43", align 8
  %6 = alloca [2 x i32], align 4
  store ptr %0, ptr %3, align 8, !tbaa !91
  store i32 %1, ptr %4, align 4, !tbaa !68
  %7 = load ptr, ptr %3, align 8
  %8 = getelementptr inbounds nuw %"struct.pbrt::WrapMode2D", ptr %7, i32 0, i32 0
  call void @llvm.lifetime.start.p0(i64 8, ptr %6) #19
  %9 = load i32, ptr %4, align 4, !tbaa !68
  store i32 %9, ptr %6, align 4, !tbaa !68
  %10 = getelementptr inbounds i32, ptr %6, i64 1
  %11 = load i32, ptr %4, align 4, !tbaa !68
  store i32 %11, ptr %10, align 4, !tbaa !68
  %12 = getelementptr inbounds nuw %"class.std::initializer_list.43", ptr %5, i32 0, i32 0
  store ptr %6, ptr %12, align 8, !tbaa !93
  %13 = getelementptr inbounds nuw %"class.std::initializer_list.43", ptr %5, i32 0, i32 1
  store i64 2, ptr %13, align 8, !tbaa !95
  %14 = getelementptr inbounds nuw { ptr, i64 }, ptr %5, i32 0, i32 0
  %15 = load ptr, ptr %14, align 8
  %16 = getelementptr inbounds nuw { ptr, i64 }, ptr %5, i32 0, i32 1
  %17 = load i64, ptr %16, align 8
  call void @_ZN4pstd5arrayIN4pbrt8WrapModeELi2EEC2ESt16initializer_listIS2_E(ptr noundef nonnull align 4 dereferenceable(8) %8, ptr %15, i64 %17)
  call void @llvm.lifetime.end.p0(i64 8, ptr %6) #19
  ret void
}

; Function Attrs: mustprogress nounwind uwtable
define linkonce_odr dso_local noundef i32 @_ZNK4pbrt5Image9NChannelsEv(ptr noundef nonnull align 8 dereferenceable(152) %0) #6 comdat align 2 {
  %2 = alloca ptr, align 8
  store ptr %0, ptr %2, align 8, !tbaa !66
  %3 = load ptr, ptr %2, align 8
  %4 = getelementptr inbounds nuw %"class.pbrt::Image", ptr %3, i32 0, i32 2
  %5 = call noundef i64 @_ZNK4pstd6vectorINSt7__cxx1112basic_stringIcSt11char_traitsIcESaIcEEENS_3pmr21polymorphic_allocatorIS6_EEE4sizeEv(ptr noundef nonnull align 8 dereferenceable(32) %4)
  %6 = trunc i64 %5 to i32
  ret i32 %6
}

; Function Attrs: mustprogress nounwind uwtable
define linkonce_odr dso_local noundef nonnull align 8 dereferenceable(152) ptr @_ZNK4pstd6vectorIN4pbrt5ImageENS_3pmr21polymorphic_allocatorIS2_EEEixEm(ptr noundef nonnull align 8 dereferenceable(32) %0, i64 noundef %1) #6 comdat align 2 {
  %3 = alloca ptr, align 8
  %4 = alloca i64, align 8
  store ptr %0, ptr %3, align 8, !tbaa !84
  store i64 %1, ptr %4, align 8, !tbaa !96
  %5 = load ptr, ptr %3, align 8
  br label %6

6:                                                ; preds = %2
  br label %7

7:                                                ; preds = %6
  %8 = getelementptr inbounds nuw %"class.pstd::vector", ptr %5, i32 0, i32 1
  %9 = load ptr, ptr %8, align 8, !tbaa !86
  %10 = load i64, ptr %4, align 8, !tbaa !96
  %11 = getelementptr inbounds nuw %"class.pbrt::Image", ptr %9, i64 %10
  ret ptr %11
}

; Function Attrs: mustprogress uwtable
define dso_local { <2 x float>, float } @_ZNK4pbrt6MIPMap5TexelINS_3RGBEEET_iNS_6Point2IiEE(ptr noundef nonnull align 8 dereferenceable(52) %0, i32 noundef %1, i64 %2) #1 align 2 {
  %4 = alloca %"class.pbrt::RGB", align 4
  %5 = alloca %"class.pbrt::Point2.1", align 4
  %6 = alloca ptr, align 8
  %7 = alloca i32, align 4
  %8 = alloca i32, align 4
  %9 = alloca %"class.pbrt::Point2.1", align 4
  %10 = alloca %"struct.pbrt::WrapMode2D", align 4
  %11 = alloca %"class.pbrt::Point2.1", align 4
  %12 = alloca %"struct.pbrt::WrapMode2D", align 4
  %13 = alloca %"class.pbrt::Point2.1", align 4
  %14 = alloca %"struct.pbrt::WrapMode2D", align 4
  %15 = alloca i32, align 4
  %16 = alloca i32, align 4
  %17 = alloca i32, align 4
  %18 = alloca float, align 4
  %19 = alloca %"class.pbrt::Point2.1", align 4
  %20 = alloca %"struct.pbrt::WrapMode2D", align 4
  %21 = alloca { <2 x float>, float }, align 8
  %22 = getelementptr inbounds nuw %"class.pbrt::Point2.1", ptr %5, i32 0, i32 0
  store i64 %2, ptr %22, align 4
  store ptr %0, ptr %6, align 8, !tbaa !13
  store i32 %1, ptr %7, align 4, !tbaa !30
  %23 = load ptr, ptr %6, align 8
  br label %24

24:                                               ; preds = %3
  br label %25

25:                                               ; preds = %24
  call void @llvm.lifetime.start.p0(i64 4, ptr %8) #19
  %26 = getelementptr inbounds nuw %"class.pbrt::MIPMap", ptr %23, i32 0, i32 0
  %27 = load i32, ptr %7, align 4, !tbaa !30
  %28 = sext i32 %27 to i64
  %29 = call noundef nonnull align 8 dereferenceable(152) ptr @_ZNK4pstd6vectorIN4pbrt5ImageENS_3pmr21polymorphic_allocatorIS2_EEEixEm(ptr noundef nonnull align 8 dereferenceable(32) %26, i64 noundef %28)
  %30 = call noundef i32 @_ZNK4pbrt5Image9NChannelsEv(ptr noundef nonnull align 8 dereferenceable(152) %29)
  store i32 %30, ptr %8, align 4, !tbaa !30
  %31 = load i32, ptr %8, align 4, !tbaa !30
  %32 = icmp eq i32 %31, 3
  br i1 %32, label %36, label %33

33:                                               ; preds = %25
  %34 = load i32, ptr %8, align 4, !tbaa !30
  %35 = icmp eq i32 %34, 4
  br i1 %35, label %36, label %73

36:                                               ; preds = %33, %25
  %37 = getelementptr inbounds nuw %"class.pbrt::MIPMap", ptr %23, i32 0, i32 0
  %38 = load i32, ptr %7, align 4, !tbaa !30
  %39 = sext i32 %38 to i64
  %40 = call noundef nonnull align 8 dereferenceable(152) ptr @_ZNK4pstd6vectorIN4pbrt5ImageENS_3pmr21polymorphic_allocatorIS2_EEEixEm(ptr noundef nonnull align 8 dereferenceable(32) %37, i64 noundef %39)
  call void @llvm.memcpy.p0.p0.i64(ptr align 4 %9, ptr align 4 %5, i64 8, i1 false)
  %41 = getelementptr inbounds nuw %"class.pbrt::MIPMap", ptr %23, i32 0, i32 2
  %42 = load i32, ptr %41, align 8, !tbaa !36
  call void @_ZN4pbrt10WrapMode2DC2ENS_8WrapModeE(ptr noundef nonnull align 4 dereferenceable(8) %10, i32 noundef %42)
  %43 = getelementptr inbounds nuw %"class.pbrt::Point2.1", ptr %9, i32 0, i32 0
  %44 = load i64, ptr %43, align 4
  %45 = getelementptr inbounds nuw %"struct.pbrt::WrapMode2D", ptr %10, i32 0, i32 0
  %46 = getelementptr inbounds nuw %"class.pstd::array", ptr %45, i32 0, i32 0
  %47 = load i64, ptr %46, align 4
  %48 = call noundef float @_ZNK4pbrt5Image10GetChannelENS_6Point2IiEEiNS_10WrapMode2DE(ptr noundef nonnull align 8 dereferenceable(152) %40, i64 %44, i32 noundef 0, i64 %47)
  %49 = getelementptr inbounds nuw %"class.pbrt::MIPMap", ptr %23, i32 0, i32 0
  %50 = load i32, ptr %7, align 4, !tbaa !30
  %51 = sext i32 %50 to i64
  %52 = call noundef nonnull align 8 dereferenceable(152) ptr @_ZNK4pstd6vectorIN4pbrt5ImageENS_3pmr21polymorphic_allocatorIS2_EEEixEm(ptr noundef nonnull align 8 dereferenceable(32) %49, i64 noundef %51)
  call void @llvm.memcpy.p0.p0.i64(ptr align 4 %11, ptr align 4 %5, i64 8, i1 false)
  %53 = getelementptr inbounds nuw %"class.pbrt::MIPMap", ptr %23, i32 0, i32 2
  %54 = load i32, ptr %53, align 8, !tbaa !36
  call void @_ZN4pbrt10WrapMode2DC2ENS_8WrapModeE(ptr noundef nonnull align 4 dereferenceable(8) %12, i32 noundef %54)
  %55 = getelementptr inbounds nuw %"class.pbrt::Point2.1", ptr %11, i32 0, i32 0
  %56 = load i64, ptr %55, align 4
  %57 = getelementptr inbounds nuw %"struct.pbrt::WrapMode2D", ptr %12, i32 0, i32 0
  %58 = getelementptr inbounds nuw %"class.pstd::array", ptr %57, i32 0, i32 0
  %59 = load i64, ptr %58, align 4
  %60 = call noundef float @_ZNK4pbrt5Image10GetChannelENS_6Point2IiEEiNS_10WrapMode2DE(ptr noundef nonnull align 8 dereferenceable(152) %52, i64 %56, i32 noundef 1, i64 %59)
  %61 = getelementptr inbounds nuw %"class.pbrt::MIPMap", ptr %23, i32 0, i32 0
  %62 = load i32, ptr %7, align 4, !tbaa !30
  %63 = sext i32 %62 to i64
  %64 = call noundef nonnull align 8 dereferenceable(152) ptr @_ZNK4pstd6vectorIN4pbrt5ImageENS_3pmr21polymorphic_allocatorIS2_EEEixEm(ptr noundef nonnull align 8 dereferenceable(32) %61, i64 noundef %63)
  call void @llvm.memcpy.p0.p0.i64(ptr align 4 %13, ptr align 4 %5, i64 8, i1 false)
  %65 = getelementptr inbounds nuw %"class.pbrt::MIPMap", ptr %23, i32 0, i32 2
  %66 = load i32, ptr %65, align 8, !tbaa !36
  call void @_ZN4pbrt10WrapMode2DC2ENS_8WrapModeE(ptr noundef nonnull align 4 dereferenceable(8) %14, i32 noundef %66)
  %67 = getelementptr inbounds nuw %"class.pbrt::Point2.1", ptr %13, i32 0, i32 0
  %68 = load i64, ptr %67, align 4
  %69 = getelementptr inbounds nuw %"struct.pbrt::WrapMode2D", ptr %14, i32 0, i32 0
  %70 = getelementptr inbounds nuw %"class.pstd::array", ptr %69, i32 0, i32 0
  %71 = load i64, ptr %70, align 4
  %72 = call noundef float @_ZNK4pbrt5Image10GetChannelENS_6Point2IiEEiNS_10WrapMode2DE(ptr noundef nonnull align 8 dereferenceable(152) %64, i64 %68, i32 noundef 2, i64 %71)
  call void @_ZN4pbrt3RGBC2Efff(ptr noundef nonnull align 4 dereferenceable(12) %4, float noundef %48, float noundef %60, float noundef %72)
  store i32 1, ptr %15, align 4
  br label %102

73:                                               ; preds = %33
  br label %74

74:                                               ; preds = %73
  call void @llvm.lifetime.start.p0(i64 4, ptr %16) #19
  store i32 1, ptr %16, align 4, !tbaa !30
  call void @llvm.lifetime.start.p0(i64 4, ptr %17) #19
  %75 = getelementptr inbounds nuw %"class.pbrt::MIPMap", ptr %23, i32 0, i32 0
  %76 = load i32, ptr %7, align 4, !tbaa !30
  %77 = sext i32 %76 to i64
  %78 = call noundef nonnull align 8 dereferenceable(152) ptr @_ZNK4pstd6vectorIN4pbrt5ImageENS_3pmr21polymorphic_allocatorIS2_EEEixEm(ptr noundef nonnull align 8 dereferenceable(32) %75, i64 noundef %77)
  %79 = call noundef i32 @_ZNK4pbrt5Image9NChannelsEv(ptr noundef nonnull align 8 dereferenceable(152) %78)
  store i32 %79, ptr %17, align 4, !tbaa !30
  %80 = load i32, ptr %16, align 4, !tbaa !30
  %81 = load i32, ptr %17, align 4, !tbaa !30
  %82 = icmp eq i32 %80, %81
  br i1 %82, label %84, label %83

83:                                               ; preds = %74
  call void @_ZN4pbrt8LogFatalIJRA2_KcRA27_S1_S3_RiS5_S6_EEEvNS_8LogLevelEPS1_iS8_DpOT_(i32 noundef 2, ptr noundef @.str.6, i32 noundef 222, ptr noundef @.str.11, ptr noundef nonnull align 1 dereferenceable(2) @.str.12, ptr noundef nonnull align 1 dereferenceable(27) @.str.13, ptr noundef nonnull align 1 dereferenceable(2) @.str.12, ptr noundef nonnull align 4 dereferenceable(4) %16, ptr noundef nonnull align 1 dereferenceable(27) @.str.13, ptr noundef nonnull align 4 dereferenceable(4) %17) #20
  unreachable

84:                                               ; preds = %74
  call void @llvm.lifetime.end.p0(i64 4, ptr %17) #19
  call void @llvm.lifetime.end.p0(i64 4, ptr %16) #19
  br label %85

85:                                               ; preds = %84
  br label %86

86:                                               ; preds = %85
  call void @llvm.lifetime.start.p0(i64 4, ptr %18) #19
  %87 = getelementptr inbounds nuw %"class.pbrt::MIPMap", ptr %23, i32 0, i32 0
  %88 = load i32, ptr %7, align 4, !tbaa !30
  %89 = sext i32 %88 to i64
  %90 = call noundef nonnull align 8 dereferenceable(152) ptr @_ZNK4pstd6vectorIN4pbrt5ImageENS_3pmr21polymorphic_allocatorIS2_EEEixEm(ptr noundef nonnull align 8 dereferenceable(32) %87, i64 noundef %89)
  call void @llvm.memcpy.p0.p0.i64(ptr align 4 %19, ptr align 4 %5, i64 8, i1 false)
  %91 = getelementptr inbounds nuw %"class.pbrt::MIPMap", ptr %23, i32 0, i32 2
  %92 = load i32, ptr %91, align 8, !tbaa !36
  call void @_ZN4pbrt10WrapMode2DC2ENS_8WrapModeE(ptr noundef nonnull align 4 dereferenceable(8) %20, i32 noundef %92)
  %93 = getelementptr inbounds nuw %"class.pbrt::Point2.1", ptr %19, i32 0, i32 0
  %94 = load i64, ptr %93, align 4
  %95 = getelementptr inbounds nuw %"struct.pbrt::WrapMode2D", ptr %20, i32 0, i32 0
  %96 = getelementptr inbounds nuw %"class.pstd::array", ptr %95, i32 0, i32 0
  %97 = load i64, ptr %96, align 4
  %98 = call noundef float @_ZNK4pbrt5Image10GetChannelENS_6Point2IiEEiNS_10WrapMode2DE(ptr noundef nonnull align 8 dereferenceable(152) %90, i64 %94, i32 noundef 0, i64 %97)
  store float %98, ptr %18, align 4, !tbaa !9
  %99 = load float, ptr %18, align 4, !tbaa !9
  %100 = load float, ptr %18, align 4, !tbaa !9
  %101 = load float, ptr %18, align 4, !tbaa !9
  call void @_ZN4pbrt3RGBC2Efff(ptr noundef nonnull align 4 dereferenceable(12) %4, float noundef %99, float noundef %100, float noundef %101)
  store i32 1, ptr %15, align 4
  call void @llvm.lifetime.end.p0(i64 4, ptr %18) #19
  br label %102

102:                                              ; preds = %86, %36
  call void @llvm.lifetime.end.p0(i64 4, ptr %8) #19
  call void @llvm.memcpy.p0.p0.i64(ptr align 8 %21, ptr align 4 %4, i64 12, i1 false)
  %103 = load { <2 x float>, float }, ptr %21, align 8
  ret { <2 x float>, float } %103
}