; Function Attrs: mustprogress uwtable
define dso_local { <2 x float>, float } @_ZNK4pbrt6MIPMap5TexelINS_3RGBEEET_iNS_6Point2IiEE(ptr noundef nonnull readonly align 8 captures(none) dereferenceable(52) %0, i32 noundef %1, i64 %2) local_unnamed_addr #2 align 2 {
  %4 = alloca i32, align 4
  %5 = alloca i32, align 4
  %6 = sext i32 %1 to i64
  %7 = getelementptr inbounds nuw i8, ptr %0, i64 8
  %8 = load ptr, ptr %7, align 8, !tbaa !25
  %9 = getelementptr inbounds nuw %"class.pbrt::Image", ptr %8, i64 %6
  %10 = getelementptr inbounds nuw i8, ptr %9, i64 40
  %11 = load i64, ptr %10, align 8, !tbaa !28
  %12 = trunc i64 %11 to i32
  %13 = add i32 %12, -3
  %or.cond = icmp ult i32 %13, 2
  br i1 %or.cond, label %14, label %26

14:                                               ; preds = %3
  %15 = getelementptr inbounds nuw i8, ptr %0, i64 40
  %16 = load i32, ptr %15, align 8, !tbaa !26
  %.sroa.228.0.insert.ext = zext i32 %16 to i64
  %.sroa.228.0.insert.shift = shl nuw i64 %.sroa.228.0.insert.ext, 32
  %.sroa.027.0.insert.insert = or disjoint i64 %.sroa.228.0.insert.shift, %.sroa.228.0.insert.ext
  %17 = tail call noundef float @_ZNK4pbrt5Image10GetChannelENS_6Point2IiEEiNS_10WrapMode2DE(ptr noundef nonnull align 8 dereferenceable(152) %9, i64 %2, i32 noundef 0, i64 %.sroa.027.0.insert.insert)
  %18 = load ptr, ptr %7, align 8, !tbaa !25
  %19 = getelementptr inbounds nuw %"class.pbrt::Image", ptr %18, i64 %6
  %20 = load i32, ptr %15, align 8, !tbaa !26
  %.sroa.226.0.insert.ext = zext i32 %20 to i64
  %.sroa.226.0.insert.shift = shl nuw i64 %.sroa.226.0.insert.ext, 32
  %.sroa.025.0.insert.insert = or disjoint i64 %.sroa.226.0.insert.shift, %.sroa.226.0.insert.ext
  %21 = tail call noundef float @_ZNK4pbrt5Image10GetChannelENS_6Point2IiEEiNS_10WrapMode2DE(ptr noundef nonnull align 8 dereferenceable(152) %19, i64 %2, i32 noundef 1, i64 %.sroa.025.0.insert.insert)
  %22 = load ptr, ptr %7, align 8, !tbaa !25
  %23 = getelementptr inbounds nuw %"class.pbrt::Image", ptr %22, i64 %6
  %24 = load i32, ptr %15, align 8, !tbaa !26
  %.sroa.224.0.insert.ext = zext i32 %24 to i64
  %.sroa.224.0.insert.shift = shl nuw i64 %.sroa.224.0.insert.ext, 32
  %.sroa.023.0.insert.insert = or disjoint i64 %.sroa.224.0.insert.shift, %.sroa.224.0.insert.ext
  %25 = tail call noundef float @_ZNK4pbrt5Image10GetChannelENS_6Point2IiEEiNS_10WrapMode2DE(ptr noundef nonnull align 8 dereferenceable(152) %23, i64 %2, i32 noundef 2, i64 %.sroa.023.0.insert.insert)
  %.sroa.029.0.vec.insert = insertelement <2 x float> poison, float %17, i64 0
  %.sroa.029.4.vec.insert = insertelement <2 x float> %.sroa.029.0.vec.insert, float %21, i64 1
  br label %33

26:                                               ; preds = %3
  call void @llvm.lifetime.start.p0(i64 4, ptr nonnull %4) #23
  store i32 1, ptr %4, align 4, !tbaa !23
  call void @llvm.lifetime.start.p0(i64 4, ptr nonnull %5) #23
  store i32 %12, ptr %5, align 4, !tbaa !23
  %27 = icmp eq i32 %12, 1
  br i1 %27, label %29, label %28

28:                                               ; preds = %26
  call void @_ZN4pbrt8LogFatalIJRA2_KcRA27_S1_S3_RiS5_S6_EEEvNS_8LogLevelEPS1_iS8_DpOT_(i32 noundef 2, ptr noundef nonnull @.str.6, i32 noundef 222, ptr noundef nonnull @.str.11, ptr noundef nonnull align 1 dereferenceable(2) @.str.12, ptr noundef nonnull align 1 dereferenceable(27) @.str.13, ptr noundef nonnull align 1 dereferenceable(2) @.str.12, ptr noundef nonnull align 4 dereferenceable(4) %4, ptr noundef nonnull align 1 dereferenceable(27) @.str.13, ptr noundef nonnull align 4 dereferenceable(4) %5) #24
  unreachable

29:                                               ; preds = %26
  call void @llvm.lifetime.end.p0(i64 4, ptr nonnull %5) #23
  call void @llvm.lifetime.end.p0(i64 4, ptr nonnull %4) #23
  %30 = getelementptr inbounds nuw i8, ptr %0, i64 40
  %31 = load i32, ptr %30, align 8, !tbaa !26
  %.sroa.2.0.insert.ext = zext i32 %31 to i64
  %.sroa.2.0.insert.shift = shl nuw i64 %.sroa.2.0.insert.ext, 32
  %.sroa.0.0.insert.insert = or disjoint i64 %.sroa.2.0.insert.shift, %.sroa.2.0.insert.ext
  %32 = tail call noundef float @_ZNK4pbrt5Image10GetChannelENS_6Point2IiEEiNS_10WrapMode2DE(ptr noundef nonnull align 8 dereferenceable(152) %9, i64 %2, i32 noundef 0, i64 %.sroa.0.0.insert.insert)
  %.sroa.029.0.vec.insert32 = insertelement <2 x float> poison, float %32, i64 0
  %.sroa.029.4.vec.insert34 = shufflevector <2 x float> %.sroa.029.0.vec.insert32, <2 x float> poison, <2 x i32> zeroinitializer
  br label %33

33:                                               ; preds = %29, %14
  %.sroa.029.0 = phi <2 x float> [ %.sroa.029.4.vec.insert, %14 ], [ %.sroa.029.4.vec.insert34, %29 ]
  %.sroa.5.0 = phi float [ %25, %14 ], [ %32, %29 ]
  %.fca.0.insert = insertvalue { <2 x float>, float } poison, <2 x float> %.sroa.029.0, 0
  %.fca.1.insert = insertvalue { <2 x float>, float } %.fca.0.insert, float %.sroa.5.0, 1
  ret { <2 x float>, float } %.fca.1.insert
}